target datalayout = "e-m:e-p270:32:32-p271:32:32-p272:64:64-i64:64-i128:128-f80:128-n8:16:32:64-S128"
target triple = "x86_64-pc-linux-gnu"

%struct.pbl_node_t = type { i32, ptr, ptr, ptr, ptr, ptr, ptr, i32 }
%struct.pbl_message_descriptor_t = type { %struct.pbl_node_t, ptr, ptr }

; Function Attrs: null_pointer_is_valid sspstrong uwtable
define hidden i32 @pbl_message_descriptor_field_count(ptr noundef %0) #0 {
  %2 = alloca ptr, align 8
  store ptr %0, ptr %2, align 8
  %3 = load ptr, ptr %2, align 8
  %4 = icmp ne ptr %3, null
  br i1 %4, label %5, label %15

5:                                                ; preds = %1
  %6 = load ptr, ptr %2, align 8
  %7 = getelementptr inbounds nuw %struct.pbl_message_descriptor_t, ptr %6, i32 0, i32 1
  %8 = load ptr, ptr %7, align 8
  %9 = icmp ne ptr %8, null
  br i1 %9, label %10, label %15

10:                                               ; preds = %5
  %11 = load ptr, ptr %2, align 8
  %12 = getelementptr inbounds nuw %struct.pbl_message_descriptor_t, ptr %11, i32 0, i32 1
  %13 = load ptr, ptr %12, align 8
  %14 = call i32 @g_queue_get_length(ptr noundef %13)
  br label %16

15:                                               ; preds = %5, %1
  br label %16

16:                                               ; preds = %15, %10
  %17 = phi i32 [ %14, %10 ], [ 0, %15 ]
  ret i32 %17
}