; Function Attrs: null_pointer_is_valid sspstrong uwtable
define hidden i32 @pbl_message_descriptor_field_count(ptr noundef readonly captures(address_is_null) %0) local_unnamed_addr #0 {
  %.not = icmp eq ptr %0, null
  br i1 %.not, label %7, label %2

2:                                                ; preds = %1
  %3 = getelementptr inbounds nuw i8, ptr %0, i64 64
  %4 = load ptr, ptr %3, align 8
  %.not4 = icmp eq ptr %4, null
  br i1 %.not4, label %7, label %5

5:                                                ; preds = %2
  %6 = tail call i32 @g_queue_get_length(ptr noundef nonnull %4)
  br label %7

7:                                                ; preds = %1, %2, %5
  %8 = phi i32 [ %6, %5 ], [ 0, %2 ], [ 0, %1 ]
  ret i32 %8
}